target datalayout = "e-m:e-p270:32:32-p271:32:32-p272:64:64-i64:64-i128:128-f80:128-n8:16:32:64-S128"
target triple = "x86_64-pc-linux-gnu"

@color_interactive_slots = internal global [6 x ptr] [ptr @.str.21, ptr @.str.22, ptr @.str.23, ptr @.str.24, ptr @.str.25, ptr @.str.26], align 16
@require_force = internal global i32 -1, align 4
@.str.30 = private unnamed_addr constant [8 x i8] c"column.\00", align 1
@.str.31 = private unnamed_addr constant [6 x i8] c"clean\00", align 1
@colopts = internal global i32 0, align 4
@.str.32 = private unnamed_addr constant [18 x i8] c"color.interactive\00", align 1
@clean_use_color = internal global i32 -1, align 4
@.str.33 = private unnamed_addr constant [19 x i8] c"color.interactive.\00", align 1
@.str.34 = private unnamed_addr constant [19 x i8] c"clean.requireforce\00", align 1

; Function Attrs: inlinehint nounwind uwtable
define internal i32 @const_error() #2 {
  ret i32 -1
}

; Function Attrs: inlinehint nounwind uwtable
define internal zeroext i1 @skip_prefix(ptr noundef %0, ptr noundef %1, ptr noundef %2) #2 {
  %4 = alloca i1, align 1
  %5 = alloca ptr, align 8
  %6 = alloca ptr, align 8
  %7 = alloca ptr, align 8
  store ptr %0, ptr %5, align 8, !tbaa !9
  store ptr %1, ptr %6, align 8, !tbaa !9
  store ptr %2, ptr %7, align 8, !tbaa !17
  br label %8

8:                                                ; preds = %16, %3
  %9 = load ptr, ptr %6, align 8, !tbaa !9
  %10 = load i8, ptr %9, align 1, !tbaa !90
  %11 = icmp ne i8 %10, 0
  br i1 %11, label %15, label %12

12:                                               ; preds = %8
  %13 = load ptr, ptr %5, align 8, !tbaa !9
  %14 = load ptr, ptr %7, align 8, !tbaa !17
  store ptr %13, ptr %14, align 8, !tbaa !9
  store i1 true, ptr %4, align 1
  br label %27

15:                                               ; preds = %8
  br label %16

16:                                               ; preds = %15
  %17 = load ptr, ptr %5, align 8, !tbaa !9
  %18 = getelementptr inbounds nuw i8, ptr %17, i32 1
  store ptr %18, ptr %5, align 8, !tbaa !9
  %19 = load i8, ptr %17, align 1, !tbaa !90
  %20 = sext i8 %19 to i32
  %21 = load ptr, ptr %6, align 8, !tbaa !9
  %22 = getelementptr inbounds nuw i8, ptr %21, i32 1
  store ptr %22, ptr %6, align 8, !tbaa !9
  %23 = load i8, ptr %21, align 1, !tbaa !90
  %24 = sext i8 %23 to i32
  %25 = icmp eq i32 %20, %24
  br i1 %25, label %8, label %26, !llvm.loop !125

26:                                               ; preds = %16
  store i1 false, ptr %4, align 1
  br label %27

27:                                               ; preds = %26, %12
  %28 = load i1, ptr %4, align 1
  ret i1 %28
}

; Function Attrs: nounwind uwtable
define internal i32 @git_clean_config(ptr noundef %0, ptr noundef %1, ptr noundef %2, ptr noundef %3) #0 {
  %5 = alloca i32, align 4
  %6 = alloca ptr, align 8
  %7 = alloca ptr, align 8
  %8 = alloca ptr, align 8
  %9 = alloca ptr, align 8
  %10 = alloca ptr, align 8
  %11 = alloca i32, align 4
  %12 = alloca i32, align 4
  store ptr %0, ptr %6, align 8, !tbaa !9
  store ptr %1, ptr %7, align 8, !tbaa !9
  store ptr %2, ptr %8, align 8, !tbaa !88
  store ptr %3, ptr %9, align 8, !tbaa !87
  call void @llvm.lifetime.start.p0(i64 8, ptr %10) #11
  %13 = load ptr, ptr %6, align 8, !tbaa !9
  %14 = call i32 @starts_with(ptr noundef %13, ptr noundef @.str.30)
  %15 = icmp ne i32 %14, 0
  br i1 %15, label %16, label %20

16:                                               ; preds = %4
  %17 = load ptr, ptr %6, align 8, !tbaa !9
  %18 = load ptr, ptr %7, align 8, !tbaa !9
  %19 = call i32 @git_column_config(ptr noundef %17, ptr noundef %18, ptr noundef @.str.31, ptr noundef @colopts)
  store i32 %19, ptr %5, align 4
  store i32 1, ptr %11, align 4
  br label %73

20:                                               ; preds = %4
  %21 = load ptr, ptr %6, align 8, !tbaa !9
  %22 = call i32 @strcmp(ptr noundef %21, ptr noundef @.str.32) #14
  %23 = icmp ne i32 %22, 0
  br i1 %23, label %28, label %24

24:                                               ; preds = %20
  %25 = load ptr, ptr %6, align 8, !tbaa !9
  %26 = load ptr, ptr %7, align 8, !tbaa !9
  %27 = call i32 @git_config_colorbool(ptr noundef %25, ptr noundef %26)
  store i32 %27, ptr @clean_use_color, align 4, !tbaa !15
  store i32 0, ptr %5, align 4
  store i32 1, ptr %11, align 4
  br label %73

28:                                               ; preds = %20
  %29 = load ptr, ptr %6, align 8, !tbaa !9
  %30 = call zeroext i1 @skip_prefix(ptr noundef %29, ptr noundef @.str.33, ptr noundef %10)
  br i1 %30, label %31, label %52

31:                                               ; preds = %28
  call void @llvm.lifetime.start.p0(i64 4, ptr %12) #11
  %32 = load ptr, ptr %10, align 8, !tbaa !9
  %33 = call i32 @lookup_config(ptr noundef @color_interactive_slots, i32 noundef 6, ptr noundef %32)
  store i32 %33, ptr %12, align 4, !tbaa !15
  %34 = load i32, ptr %12, align 4, !tbaa !15
  %35 = icmp slt i32 %34, 0
  br i1 %35, label %36, label %37

36:                                               ; preds = %31
  store i32 0, ptr %5, align 4
  store i32 1, ptr %11, align 4
  br label %51

37:                                               ; preds = %31
  %38 = load ptr, ptr %7, align 8, !tbaa !9
  %39 = icmp ne ptr %38, null
  br i1 %39, label %44, label %40

40:                                               ; preds = %37
  %41 = load ptr, ptr %6, align 8, !tbaa !9
  %42 = call i32 @config_error_nonbool(ptr noundef %41)
  %43 = call i32 @const_error()
  store i32 %43, ptr %5, align 4
  store i32 1, ptr %11, align 4
  br label %51

44:                                               ; preds = %37
  %45 = load ptr, ptr %7, align 8, !tbaa !9
  %46 = load i32, ptr %12, align 4, !tbaa !15
  %47 = sext i32 %46 to i64
  %48 = getelementptr inbounds [6 x [75 x i8]], ptr @clean_colors, i64 0, i64 %47
  %49 = getelementptr inbounds [75 x i8], ptr %48, i64 0, i64 0
  %50 = call i32 @color_parse(ptr noundef %45, ptr noundef %49)
  store i32 %50, ptr %5, align 4
  store i32 1, ptr %11, align 4
  br label %51

51:                                               ; preds = %44, %40, %36
  call void @llvm.lifetime.end.p0(i64 4, ptr %12) #11
  br label %73

52:                                               ; preds = %28
  %53 = load ptr, ptr %6, align 8, !tbaa !9
  %54 = call i32 @strcmp(ptr noundef %53, ptr noundef @.str.34) #14
  %55 = icmp ne i32 %54, 0
  br i1 %55, label %60, label %56

56:                                               ; preds = %52
  %57 = load ptr, ptr %6, align 8, !tbaa !9
  %58 = load ptr, ptr %7, align 8, !tbaa !9
  %59 = call i32 @git_config_bool(ptr noundef %57, ptr noundef %58)
  store i32 %59, ptr @require_force, align 4, !tbaa !15
  store i32 0, ptr %5, align 4
  store i32 1, ptr %11, align 4
  br label %73

60:                                               ; preds = %52
  %61 = load ptr, ptr %6, align 8, !tbaa !9
  %62 = load ptr, ptr %7, align 8, !tbaa !9
  %63 = load ptr, ptr %9, align 8, !tbaa !87
  %64 = call i32 @git_color_config(ptr noundef %61, ptr noundef %62, ptr noundef %63)
  %65 = icmp slt i32 %64, 0
  br i1 %65, label %66, label %67

66:                                               ; preds = %60
  store i32 -1, ptr %5, align 4
  store i32 1, ptr %11, align 4
  br label %73

67:                                               ; preds = %60
  %68 = load ptr, ptr %6, align 8, !tbaa !9
  %69 = load ptr, ptr %7, align 8, !tbaa !9
  %70 = load ptr, ptr %8, align 8, !tbaa !88
  %71 = load ptr, ptr %9, align 8, !tbaa !87
  %72 = call i32 @git_default_config(ptr noundef %68, ptr noundef %69, ptr noundef %70, ptr noundef %71)
  store i32 %72, ptr %5, align 4
  store i32 1, ptr %11, align 4
  br label %73

73:                                               ; preds = %67, %66, %56, %51, %24, %16
  call void @llvm.lifetime.end.p0(i64 8, ptr %10) #11
  %74 = load i32, ptr %5, align 4
  ret i32 %74
}